; Function Attrs: mustprogress nofree norecurse nosync nounwind willreturn memory(read, argmem: readwrite, inaccessiblemem: none) uwtable
define internal range(i32 0, 23) i32 @opt_cache_oblivious_ctl(ptr readnone captures(none) %0, ptr readnone captures(none) %1, i64 %2, ptr noundef writeonly captures(address_is_null) %3, ptr noundef captures(address_is_null) %4, ptr noundef readnone captures(address_is_null) %5, i64 noundef %6) #12 {
  %8 = alloca i8, align 1
  call void @llvm.lifetime.start.p0(i64 1, ptr nonnull %8)
  %9 = icmp ne ptr %5, null
  %10 = icmp ne i64 %6, 0
  %or.cond = or i1 %9, %10
  br i1 %or.cond, label %21, label %11

11:                                               ; preds = %7
  %12 = load i8, ptr @je_opt_cache_oblivious, align 1, !tbaa !146, !range !48, !noundef !49
  store i8 %12, ptr %8, align 1, !tbaa !146
  %13 = icmp ne ptr %3, null
  %14 = icmp ne ptr %4, null
  %or.cond3 = and i1 %13, %14
  br i1 %or.cond3, label %15, label %21

15:                                               ; preds = %11
  %16 = load i64, ptr %4, align 8, !tbaa !4
  switch i64 %16, label %18 [
    i64 1, label %20
    i64 0, label %17
  ]

17:                                               ; preds = %15
  br label %18

18:                                               ; preds = %15, %17
  %19 = phi i64 [ 0, %17 ], [ 1, %15 ]
  call void @llvm.memcpy.p0.p0.i64(ptr nonnull align 1 %3, ptr nonnull align 1 %8, i64 %19, i1 false)
  store i64 %19, ptr %4, align 8, !tbaa !4
  br label %21

20:                                               ; preds = %15
  store i8 %12, ptr %3, align 1, !tbaa !146
  br label %21

21:                                               ; preds = %18, %7, %20, %11
  %.018 = phi i32 [ 22, %18 ], [ 1, %7 ], [ 0, %20 ], [ 0, %11 ]
  call void @llvm.lifetime.end.p0(i64 1, ptr nonnull %8)
  ret i32 %.018
}